; Function Attrs: mustprogress nofree norecurse nosync nounwind willreturn memory(none) uwtable
define dso_local { i64, i64 } @i128_mult(i64 %0, i64 %1, i64 %2, i64 %3) local_unnamed_addr #1 {
  %5 = and i64 %1, 4294967295
  %6 = and i64 %3, 4294967295
  %7 = mul nuw i64 %6, %5
  %8 = and i64 %7, 4294967295
  %9 = lshr i64 %7, 32
  %10 = lshr i64 %1, 32
  %11 = mul nuw i64 %6, %10
  %12 = add nuw i64 %9, %11
  %13 = and i64 %12, 4294967295
  %14 = lshr i64 %12, 32
  %15 = lshr i64 %3, 32
  %16 = mul nuw i64 %15, %5
  %17 = add nuw i64 %13, %16
  %18 = mul nuw i64 %15, %10
  %19 = lshr i64 %17, 32
  %20 = shl i64 %17, 32
  %21 = or disjoint i64 %20, %8
  %22 = mul i64 %3, %0
  %23 = mul i64 %2, %1
  %24 = add i64 %22, %23
  %25 = add i64 %24, %18
  %26 = add i64 %25, %14
  %27 = add i64 %26, %19
  %.fca.0.insert = insertvalue { i64, i64 } poison, i64 %27, 0
  %.fca.1.insert = insertvalue { i64, i64 } %.fca.0.insert, i64 %21, 1
  ret { i64, i64 } %.fca.1.insert
}